opt subtitle "HI-TECH Software Omniscient Code Generator (Lite mode) build 9453"

opt pagewidth 120

	opt lm

	processor	16F877A
clrc	macro
	bcf	3,0
	endm
clrz	macro
	bcf	3,2
	endm
setc	macro
	bsf	3,0
	endm
setz	macro
	bsf	3,2
	endm
skipc	macro
	btfss	3,0
	endm
skipz	macro
	btfss	3,2
	endm
skipnc	macro
	btfsc	3,0
	endm
skipnz	macro
	btfsc	3,2
	endm
indf	equ	0
indf0	equ	0
pc	equ	2
pcl	equ	2
status	equ	3
fsr	equ	4
fsr0	equ	4
c	equ	1
z	equ	0
pclath	equ	10
	FNCALL	_main,_delay
	FNROOT	_main
	global	_PORTD
psect	maintext,global,class=CODE,delta=2
global __pmaintext
__pmaintext:
_PORTD	set	8
	global	_CARRY
_CARRY	set	24
	global	_GIE
_GIE	set	95
	global	_TRISD
_TRISD	set	136
	global	_EEADR
_EEADR	set	269
	global	_EEDATA
_EEDATA	set	268
	global	_EECON1
_EECON1	set	396
	global	_EECON2
_EECON2	set	397
	global	_RD
_RD	set	3168
	global	_WR
_WR	set	3169
	global	_WREN
_WREN	set	3170
	file	"common cathode.as"
	line	#
psect cinit,class=CODE,delta=2
global start_initialization
start_initialization:

psect cinit,class=CODE,delta=2
global end_of_initialization

;End of C runtime variable initialization code

end_of_initialization:
clrf status
ljmp _main	;jump to C main() function
psect	cstackCOMMON,class=COMMON,space=1
global __pcstackCOMMON
__pcstackCOMMON:
	global	?_delay
?_delay:	; 0 bytes @ 0x0
	global	?_main
?_main:	; 0 bytes @ 0x0
	global	delay@a
delay@a:	; 2 bytes @ 0x0
	ds	2
	global	??_delay
??_delay:	; 0 bytes @ 0x2
	ds	1
	global	delay@i
delay@i:	; 2 bytes @ 0x3
	ds	2
	global	delay@j
delay@j:	; 2 bytes @ 0x5
	ds	2
	global	??_main
??_main:	; 0 bytes @ 0x7
;;Data sizes: Strings 0, constant 0, data 0, bss 0, persistent 0 stack 0
;;Auto spaces:   Size  Autos    Used
;; COMMON          14      7       7
;; BANK0           80      0       0
;; BANK1           80      0       0
;; BANK3           96      0       0
;; BANK2           96      0       0

;;
;; Pointer list with targets:



;;
;; Critical Paths under _main in COMMON
;;
;;   _main->_delay
;;
;; Critical Paths under _main in BANK0
;;
;;   None.
;;
;; Critical Paths under _main in BANK1
;;
;;   None.
;;
;; Critical Paths under _main in BANK3
;;
;;   None.
;;
;; Critical Paths under _main in BANK2
;;
;;   None.

;;
;;Main: autosize = 0, tempsize = 0, incstack = 0, save=0
;;

;;
;;Call Graph Tables:
;;
;; ---------------------------------------------------------------------------------
;; (Depth) Function   	        Calls       Base Space   Used Autos Params    Refs
;; ---------------------------------------------------------------------------------
;; (0) _main                                                 0     0      0      60
;;                              _delay
;; ---------------------------------------------------------------------------------
;; (1) _delay                                                7     5      2      60
;;                                              0 COMMON     7     5      2
;; ---------------------------------------------------------------------------------
;; Estimated maximum stack depth 1
;; ---------------------------------------------------------------------------------

;; Call Graph Graphs:

;; _main (ROOT)
;;   _delay
;;

;; Address spaces:

;;Name               Size   Autos  Total    Cost      Usage
;;BITCOMMON            E      0       0       0        0.0%
;;EEDATA             100      0       0       0        0.0%
;;NULL                 0      0       0       0        0.0%
;;CODE                 0      0       0       0        0.0%
;;COMMON               E      7       7       1       50.0%
;;BITSFR0              0      0       0       1        0.0%
;;SFR0                 0      0       0       1        0.0%
;;BITSFR1              0      0       0       2        0.0%
;;SFR1                 0      0       0       2        0.0%
;;STACK                0      0       1       2        0.0%
;;ABS                  0      0       0       3        0.0%
;;BITBANK0            50      0       0       4        0.0%
;;BITSFR3              0      0       0       4        0.0%
;;SFR3                 0      0       0       4        0.0%
;;BANK0               50      0       0       5        0.0%
;;BITSFR2              0      0       0       5        0.0%
;;SFR2                 0      0       0       5        0.0%
;;BITBANK1            50      0       0       6        0.0%
;;BANK1               50      0       0       7        0.0%
;;BITBANK3            60      0       0       8        0.0%
;;BANK3               60      0       0       9        0.0%
;;BITBANK2            60      0       0      10        0.0%
;;BANK2               60      0       0      11        0.0%
;;DATA                 0      0       0      12        0.0%

	global	_main
psect	maintext

;; *************** function _main *****************
;; Defined at:
;;		line 4 in file "F:\Basic Microcontroller\PIC16F877A\7SEGMENT\common cathode\common cathode.c"
;; Parameters:    Size  Location     Type
;;		None
;; Auto vars:     Size  Location     Type
;;		None
;; Return value:  Size  Location     Type
;;		None               void
;; Registers used:
;;		wreg, status,2, status,0, btemp+1, pclath, cstack
;; Tracked objects:
;;		On entry : 17F/0
;;		On exit  : 0/0
;;		Unchanged: 0/0
;; Data sizes:     COMMON   BANK0   BANK1   BANK3   BANK2
;;      Params:         0       0       0       0       0
;;      Locals:         0       0       0       0       0
;;      Temps:          0       0       0       0       0
;;      Totals:         0       0       0       0       0
;;Total ram usage:        0 bytes
;; Hardware stack levels required when called:    1
;; This function calls:
;;		_delay
;; This function is called by:
;;		Startup code after reset
;; This function uses a non-reentrant model
;;
psect	maintext
	file	"F:\Basic Microcontroller\PIC16F877A\7SEGMENT\common cathode\common cathode.c"
	line	4
	global	__size_of_main
	__size_of_main	equ	__end_of_main-_main
	
_main:	
	opt	stack 7
; Regs used in _main: [wreg+status,2+status,0+btemp+1+pclath+cstack]
	line	5
	
l2617:	
;common cathode.c: 5: TRISD=0X00;
	bsf	status, 5	;RP0=1, select bank1
	bcf	status, 6	;RP1=0, select bank1
	clrf	(136)^080h	;volatile
	goto	l2619
	line	6
;common cathode.c: 6: while(1)
	
l687:	
	line	8
	
l2619:	
;common cathode.c: 7: {
;common cathode.c: 8: PORTD=0x3f;
	movlw	(03Fh)
	bcf	status, 5	;RP0=0, select bank0
	bcf	status, 6	;RP1=0, select bank0
	movwf	(8)	;volatile
	line	9
	
l2621:	
;common cathode.c: 9: delay(100);
	movlw	low(064h)
	movwf	(?_delay)
	movlw	high(064h)
	movwf	((?_delay))+1
	fcall	_delay
	line	10
	
l2623:	
;common cathode.c: 10: PORTD=0x06;
	movlw	(06h)
	bcf	status, 5	;RP0=0, select bank0
	bcf	status, 6	;RP1=0, select bank0
	movwf	(8)	;volatile
	line	11
	
l2625:	
;common cathode.c: 11: delay(100);
	movlw	low(064h)
	movwf	(?_delay)
	movlw	high(064h)
	movwf	((?_delay))+1
	fcall	_delay
	line	12
	
l2627:	
;common cathode.c: 12: PORTD=0x5b;
	movlw	(05Bh)
	bcf	status, 5	;RP0=0, select bank0
	bcf	status, 6	;RP1=0, select bank0
	movwf	(8)	;volatile
	line	13
	
l2629:	
;common cathode.c: 13: delay(100);
	movlw	low(064h)
	movwf	(?_delay)
	movlw	high(064h)
	movwf	((?_delay))+1
	fcall	_delay
	line	14
	
l2631:	
;common cathode.c: 14: PORTD=0x4f;
	movlw	(04Fh)
	bcf	status, 5	;RP0=0, select bank0
	bcf	status, 6	;RP1=0, select bank0
	movwf	(8)	;volatile
	line	15
	
l2633:	
;common cathode.c: 15: delay(100);
	movlw	low(064h)
	movwf	(?_delay)
	movlw	high(064h)
	movwf	((?_delay))+1
	fcall	_delay
	line	16
	
l2635:	
;common cathode.c: 16: PORTD=0x66;
	movlw	(066h)
	bcf	status, 5	;RP0=0, select bank0
	bcf	status, 6	;RP1=0, select bank0
	movwf	(8)	;volatile
	line	17
	
l2637:	
;common cathode.c: 17: delay(100);
	movlw	low(064h)
	movwf	(?_delay)
	movlw	high(064h)
	movwf	((?_delay))+1
	fcall	_delay
	line	18
	
l2639:	
;common cathode.c: 18: PORTD=0x6d;
	movlw	(06Dh)
	bcf	status, 5	;RP0=0, select bank0
	bcf	status, 6	;RP1=0, select bank0
	movwf	(8)	;volatile
	line	19
	
l2641:	
;common cathode.c: 19: delay(100);
	movlw	low(064h)
	movwf	(?_delay)
	movlw	high(064h)
	movwf	((?_delay))+1
	fcall	_delay
	line	20
	
l2643:	
;common cathode.c: 20: PORTD=0x7c;
	movlw	(07Ch)
	bcf	status, 5	;RP0=0, select bank0
	bcf	status, 6	;RP1=0, select bank0
	movwf	(8)	;volatile
	line	21
	
l2645:	
;common cathode.c: 21: delay(100);
	movlw	low(064h)
	movwf	(?_delay)
	movlw	high(064h)
	movwf	((?_delay))+1
	fcall	_delay
	line	22
	
l2647:	
;common cathode.c: 22: PORTD=0x07;
	movlw	(07h)
	bcf	status, 5	;RP0=0, select bank0
	bcf	status, 6	;RP1=0, select bank0
	movwf	(8)	;volatile
	line	23
	
l2649:	
;common cathode.c: 23: delay(100);
	movlw	low(064h)
	movwf	(?_delay)
	movlw	high(064h)
	movwf	((?_delay))+1
	fcall	_delay
	line	24
	
l2651:	
;common cathode.c: 24: PORTD=0x7f;
	movlw	(07Fh)
	bcf	status, 5	;RP0=0, select bank0
	bcf	status, 6	;RP1=0, select bank0
	movwf	(8)	;volatile
	line	25
	
l2653:	
;common cathode.c: 25: delay(100);
	movlw	low(064h)
	movwf	(?_delay)
	movlw	high(064h)
	movwf	((?_delay))+1
	fcall	_delay
	line	26
	
l2655:	
;common cathode.c: 26: PORTD=0x6f;
	movlw	(06Fh)
	bcf	status, 5	;RP0=0, select bank0
	bcf	status, 6	;RP1=0, select bank0
	movwf	(8)	;volatile
	line	27
	
l2657:	
;common cathode.c: 27: delay(100);
	movlw	low(064h)
	movwf	(?_delay)
	movlw	high(064h)
	movwf	((?_delay))+1
	fcall	_delay
	goto	l2619
	line	28
	
l688:	
	line	6
	goto	l2619
	
l689:	
	line	29
	
l690:	
	global	start
	ljmp	start
	opt stack 0
GLOBAL	__end_of_main
	__end_of_main:
;; =============== function _main ends ============

	signat	_main,88
	global	_delay
psect	text71,local,class=CODE,delta=2
global __ptext71
__ptext71:

;; *************** function _delay *****************
;; Defined at:
;;		line 31 in file "F:\Basic Microcontroller\PIC16F877A\7SEGMENT\common cathode\common cathode.c"
;; Parameters:    Size  Location     Type
;;  a               2    0[COMMON] int 
;; Auto vars:     Size  Location     Type
;;  j               2    5[COMMON] int 
;;  i               2    3[COMMON] int 
;; Return value:  Size  Location     Type
;;		None               void
;; Registers used:
;;		wreg, status,2, btemp+1
;; Tracked objects:
;;		On entry : 0/0
;;		On exit  : 0/0
;;		Unchanged: 0/0
;; Data sizes:     COMMON   BANK0   BANK1   BANK3   BANK2
;;      Params:         2       0       0       0       0
;;      Locals:         4       0       0       0       0
;;      Temps:          1       0       0       0       0
;;      Totals:         7       0       0       0       0
;;Total ram usage:        7 bytes
;; Hardware stack levels used:    1
;; This function calls:
;;		Nothing
;; This function is called by:
;;		_main
;; This function uses a non-reentrant model
;;
psect	text71
	file	"F:\Basic Microcontroller\PIC16F877A\7SEGMENT\common cathode\common cathode.c"
	line	31
	global	__size_of_delay
	__size_of_delay	equ	__end_of_delay-_delay
	
_delay:	
	opt	stack 7
; Regs used in _delay: [wreg+status,2+btemp+1]
	line	33
	
l1745:	
;common cathode.c: 32: int i,j;
;common cathode.c: 33: for(i=0;i<a;i++)
	clrf	(delay@i)
	clrf	(delay@i+1)
	goto	l693
	line	34
	
l694:	
	line	35
	
l1747:	
;common cathode.c: 34: {
;common cathode.c: 35: for(j=0;j<1000;j++)
	clrf	(delay@j)
	clrf	(delay@j+1)
	
l1749:	
	movf	(delay@j+1),w
	xorlw	80h
	movwf	btemp+1
	movlw	(high(03E8h))^80h
	subwf	btemp+1,w
	skipz
	goto	u15
	movlw	low(03E8h)
	subwf	(delay@j),w
u15:

	skipc
	goto	u11
	goto	u10
u11:
	goto	l1753
u10:
	goto	l1757
	
l1751:	
	goto	l1757
	line	36
	
l695:	
	line	35
	
l1753:	
;common cathode.c: 36: {
	movlw	low(01h)
	addwf	(delay@j),f
	skipnc
	incf	(delay@j+1),f
	movlw	high(01h)
	addwf	(delay@j+1),f
	
l1755:	
	movf	(delay@j+1),w
	xorlw	80h
	movwf	btemp+1
	movlw	(high(03E8h))^80h
	subwf	btemp+1,w
	skipz
	goto	u25
	movlw	low(03E8h)
	subwf	(delay@j),w
u25:

	skipc
	goto	u21
	goto	u20
u21:
	goto	l1753
u20:
	goto	l1757
	
l696:	
	line	33
	
l1757:	
	movlw	low(01h)
	addwf	(delay@i),f
	skipnc
	incf	(delay@i+1),f
	movlw	high(01h)
	addwf	(delay@i+1),f
	
l693:	
	movf	(delay@i+1),w
	xorlw	80h
	movwf	(??_delay+0)+0
	movf	(delay@a+1),w
	xorlw	80h
	subwf	(??_delay+0)+0,w
	skipz
	goto	u35
	movf	(delay@a),w
	subwf	(delay@i),w
u35:

	skipc
	goto	u31
	goto	u30
u31:
	goto	l1747
u30:
	goto	l698
	
l697:	
	line	40
	
l698:	
	return
	opt stack 0
GLOBAL	__end_of_delay
	__end_of_delay:
;; =============== function _delay ends ============

	signat	_delay,4216
psect	text72,local,class=CODE,delta=2
global __ptext72
__ptext72:
	global	btemp
	btemp set 07Eh

	DABS	1,126,2	;btemp
	global	wtemp0
	wtemp0 set btemp
	end
