

HI-TECH Software PIC LITE Macro Assembler V9.83 build 10920 
                                                                                               Sat Sep 26 08:30:21 2020

HI-TECH Software Omniscient Code Generator (Lite mode) build 10920
     1  0000                     opt subtitle "HI-TECH Software Omniscient Code Generator (Lite mode) build 10920"
     2                           
     3                           opt pagewidth 120
     4                           
     5                           	opt lm
     6                           
     7                           	processor	16F877A
     8                           clrc	macro
     9                           	bcf	3,0
    10  0000                     	endm
    11                           clrz	macro
    12                           	bcf	3,2
    13  0000                     	endm
    14                           setc	macro
    15                           	bsf	3,0
    16  0000                     	endm
    17                           setz	macro
    18                           	bsf	3,2
    19  0000                     	endm
    20                           skipc	macro
    21                           	btfss	3,0
    22  0000                     	endm
    23                           skipz	macro
    24                           	btfss	3,2
    25  0000                     	endm
    26                           skipnc	macro
    27                           	btfsc	3,0
    28  0000                     	endm
    29                           skipnz	macro
    30                           	btfsc	3,2
    31  0000                     	endm
    32  0000                     indf	equ	0
    33  0000                     indf0	equ	0
    34  0002                     pc	equ	2
    35  0002                     pcl	equ	2
    36  0003                     status	equ	3
    37  0004                     fsr	equ	4
    38  0004                     fsr0	equ	4
    39  0001                     c	equ	1
    40  0000                     z	equ	0
    41  000A                     pclath	equ	10
    42                           	FNCALL	_main,_SPI_Initialize_Master
    43                           	FNCALL	_main,_SPI_Write
    44                           	FNCALL	_main,_delay
    45                           	FNROOT	_main
    46                           	global	_arr
    47                           	global	_ar2
    48                           psect	idataBANK0,class=CODE,space=0,delta=2
    49                           global __pidataBANK0
    50  05CA                     __pidataBANK0:
    51                           	file	"7 SEG SPI.c"
    52                           	line	10
    53                           
    54                           ;initializer for _arr
    55  05CA  343F               	retlw	03Fh
    56  05CB  3400               	retlw	0
    57                           
    58  05CC  3406               	retlw	06h
    59  05CD  3400               	retlw	0
    60                           
    61  05CE  345B               	retlw	05Bh
    62  05CF  3400               	retlw	0
    63                           
    64  05D0  344F               	retlw	04Fh
    65  05D1  3400               	retlw	0
    66                           
    67  05D2  3466               	retlw	066h
    68  05D3  3400               	retlw	0
    69                           
    70  05D4  346D               	retlw	06Dh
    71  05D5  3400               	retlw	0
    72                           
    73  05D6  347C               	retlw	07Ch
    74  05D7  3400               	retlw	0
    75                           
    76  05D8  3407               	retlw	07h
    77  05D9  3400               	retlw	0
    78                           
    79  05DA  347F               	retlw	07Fh
    80  05DB  3400               	retlw	0
    81                           
    82  05DC  346F               	retlw	06Fh
    83  05DD  3400               	retlw	0
    84                           
    85                           	line	11
    86                           
    87                           ;initializer for _ar2
    88  05DE  3401               	retlw	01h
    89  05DF  3400               	retlw	0
    90                           
    91  05E0  3402               	retlw	02h
    92  05E1  3400               	retlw	0
    93                           
    94  05E2  3403               	retlw	03h
    95  05E3  3400               	retlw	0
    96                           
    97  05E4  3404               	retlw	04h
    98  05E5  3400               	retlw	0
    99                           
   100  05E6  3405               	retlw	05h
   101  05E7  3400               	retlw	0
   102                           
   103  05E8  3406               	retlw	06h
   104  05E9  3400               	retlw	0
   105                           
   106  05EA  3407               	retlw	07h
   107  05EB  3400               	retlw	0
   108                           
   109  05EC  3408               	retlw	08h
   110  05ED  3400               	retlw	0
   111                           
   112                           	global	_SSPBUF
   113  0013                     _SSPBUF	set	19
   114                           	global	_SSPCON
   115  0014                     _SSPCON	set	20
   116                           	global	_CARRY
   117  0018                     _CARRY	set	24
   118                           	global	_GIE
   119  005F                     _GIE	set	95
   120                           	global	_RC2
   121  003A                     _RC2	set	58
   122                           	global	_SSPSTAT
   123  0094                     _SSPSTAT	set	148
   124                           	global	_SSPSTATbits
   125  0094                     _SSPSTATbits	set	148
   126                           	global	_TRISC2
   127  043A                     _TRISC2	set	1082
   128                           	global	_TRISC3
   129  043B                     _TRISC3	set	1083
   130                           	global	_TRISC5
   131  043D                     _TRISC5	set	1085
   132                           	global	_EEADR
   133  010D                     _EEADR	set	269
   134                           	global	_EEDATA
   135  010C                     _EEDATA	set	268
   136                           	global	_EECON1
   137  018C                     _EECON1	set	396
   138                           	global	_EECON2
   139  018D                     _EECON2	set	397
   140                           	global	_RD
   141  0C60                     _RD	set	3168
   142                           	global	_WR
   143  0C61                     _WR	set	3169
   144                           	global	_WREN
   145  0C62                     _WREN	set	3170
   146                           	file	"C:\Users\Aravinth\AppData\Local\Temp\s7r0."
   147                           	line	#
   148                           psect cinit,class=CODE,delta=2
   149                           global start_initialization
   150  0588                     start_initialization:
   151                           
   152                           psect	dataBANK0,class=BANK0,space=1
   153                           global __pdataBANK0
   154  0020                     __pdataBANK0:
   155                           	file	"7 SEG SPI.c"
   156                           	line	10
   157  0020                     _arr:
   158  0020                            ds      20
   159                           
   160                           psect	dataBANK0
   161                           	file	"7 SEG SPI.c"
   162                           	line	11
   163  0034                     _ar2:
   164  0034                            ds      16
   165                           
   166                           global btemp
   167                           psect inittext,class=CODE,delta=2
   168                           global init_fetch,btemp
   169                           ;	Called with low address in FSR and high address in W
   170  059A                     init_fetch:
   171  059A  087E               	movf btemp,w
   172  059B  008A               	movwf pclath
   173  059C  087F               	movf btemp+1,w
   174  059D  0082               	movwf pc
   175                           global init_ram
   176                           ;Called with:
   177                           ;	high address of idata address in btemp 
   178                           ;	low address of idata address in btemp+1 
   179                           ;	low address of data in FSR
   180                           ;	high address + 1 of data in btemp-1
   181  059E                     init_ram:
   182  059E  120A  118A  259A   	fcall init_fetch
              120A  118A         
   183  05A3  0080               	movwf indf,f
   184  05A4  0A84               	incf fsr,f
   185  05A5  0804               	movf fsr,w
   186  05A6  067D               	xorwf btemp-1,w
   187  05A7  1903               	btfsc status,2
   188  05A8  3400               	retlw 0
   189  05A9  0AFF               	incf btemp+1,f
   190  05AA  1903               	btfsc status,2
   191  05AB  0AFE               	incf btemp,f
   192  05AC  2D9E               	goto init_ram
   193                           ; Initialize objects allocated to BANK0
   194                           psect cinit,class=CODE,delta=2
   195                           global init_ram, __pidataBANK0
   196  0588  1383               	bcf	status, 7	;select IRP bank0
   197  0589  3044               	movlw low(__pdataBANK0+36)
   198  058A  00FD               	movwf btemp-1,f
   199  058B  3005               	movlw high(__pidataBANK0)
   200  058C  00FE               	movwf btemp,f
   201  058D  30CA               	movlw low(__pidataBANK0)
   202  058E  00FF               	movwf btemp+1,f
   203  058F  3020               	movlw low(__pdataBANK0)
   204  0590  0084               	movwf fsr,f
   205  0591  120A  118A  259E   	fcall init_ram
              120A  118A         
   206                           psect cinit,class=CODE,delta=2
   207                           global end_of_initialization
   208                           
   209                           ;End of C runtime variable initialization code
   210                           
   211  0596                     end_of_initialization:
   212  0596  0183               clrf status
   213  0597  120A  118A  2E2C   ljmp _main	;jump to C main() function
   214                           psect	cstackCOMMON,class=COMMON,space=1
   215                           global __pcstackCOMMON
   216  0070                     __pcstackCOMMON:
   217                           	global	?_SPI_Initialize_Master
   218  0070                     ?_SPI_Initialize_Master:	; 0 bytes @ 0x0
   219                           	global	??_SPI_Initialize_Master
   220  0070                     ??_SPI_Initialize_Master:	; 0 bytes @ 0x0
   221                           	global	?_SPI_Write
   222  0070                     ?_SPI_Write:	; 0 bytes @ 0x0
   223                           	global	?_delay
   224  0070                     ?_delay:	; 0 bytes @ 0x0
   225                           	global	?_main
   226  0070                     ?_main:	; 0 bytes @ 0x0
   227                           	global	SPI_Write@data
   228  0070                     SPI_Write@data:	; 1 bytes @ 0x0
   229                           	global	delay@a
   230  0070                     delay@a:	; 2 bytes @ 0x0
   231  0070                     	ds	1
   232                           	global	??_SPI_Write
   233  0071                     ??_SPI_Write:	; 0 bytes @ 0x1
   234                           	global	SPI_Write@cmd
   235  0071                     SPI_Write@cmd:	; 1 bytes @ 0x1
   236  0071                     	ds	1
   237                           	global	??_delay
   238  0072                     ??_delay:	; 0 bytes @ 0x2
   239  0072                     	ds	1
   240                           	global	delay@i
   241  0073                     delay@i:	; 2 bytes @ 0x3
   242  0073                     	ds	2
   243                           	global	delay@j
   244  0075                     delay@j:	; 2 bytes @ 0x5
   245  0075                     	ds	2
   246                           	global	??_main
   247  0077                     ??_main:	; 0 bytes @ 0x7
   248  0077                     	ds	2
   249                           psect	cstackBANK0,class=BANK0,space=1
   250                           global __pcstackBANK0
   251  0044                     __pcstackBANK0:
   252                           	global	main@h
   253  0044                     main@h:	; 2 bytes @ 0x0
   254  0044                     	ds	2
   255                           	global	main@g
   256  0046                     main@g:	; 2 bytes @ 0x2
   257  0046                     	ds	2
   258                           	global	main@f
   259  0048                     main@f:	; 2 bytes @ 0x4
   260  0048                     	ds	2
   261                           	global	main@e
   262  004A                     main@e:	; 2 bytes @ 0x6
   263  004A                     	ds	2
   264                           	global	main@i
   265  004C                     main@i:	; 2 bytes @ 0x8
   266  004C                     	ds	2
   267                           	global	main@d
   268  004E                     main@d:	; 2 bytes @ 0xA
   269  004E                     	ds	2
   270                           	global	main@c
   271  0050                     main@c:	; 2 bytes @ 0xC
   272  0050                     	ds	2
   273                           	global	main@b
   274  0052                     main@b:	; 2 bytes @ 0xE
   275  0052                     	ds	2
   276                           	global	main@a
   277  0054                     main@a:	; 2 bytes @ 0x10
   278  0054                     	ds	2
   279 ;;Data sizes: Strings 0, constant 0, data 36, bss 0, persistent 0 stack 0
   280 ;;Auto spaces:   Size  Autos    Used
   281 ;; COMMON          14      9       9
   282 ;; BANK0           80     18      54
   283 ;; BANK1           80      0       0
   284 ;; BANK3           96      0       0
   285 ;; BANK2           96      0       0
   286                           
   287 ;;
   288 ;; Pointer list with targets:
   289                           
   290                           
   291                           
   292 ;;
   293 ;; Critical Paths under _main in COMMON
   294 ;;
   295 ;;   _main->_delay
   296 ;;
   297 ;; Critical Paths under _main in BANK0
   298 ;;
   299 ;;   None.
   300 ;;
   301 ;; Critical Paths under _main in BANK1
   302 ;;
   303 ;;   None.
   304 ;;
   305 ;; Critical Paths under _main in BANK3
   306 ;;
   307 ;;   None.
   308 ;;
   309 ;; Critical Paths under _main in BANK2
   310 ;;
   311 ;;   None.
   312                           
   313 ;;
   314 ;;Main: autosize = 0, tempsize = 2, incstack = 0, save=0
   315 ;;
   316                           
   317 ;;
   318 ;;Call Graph Tables:
   319 ;;
   320 ;; ---------------------------------------------------------------------------------
   321 ;; (Depth) Function   	        Calls       Base Space   Used Autos Params    Refs
   322 ;; ---------------------------------------------------------------------------------
   323 ;; (0) _main                                                20    20      0     608
   324 ;;                                              7 COMMON     2     2      0
   325 ;;                                              0 BANK0     18    18      0
   326 ;;              _SPI_Initialize_Master
   327 ;;                          _SPI_Write
   328 ;;                              _delay
   329 ;; ---------------------------------------------------------------------------------
   330 ;; (1) _delay                                                7     5      2      92
   331 ;;                                              0 COMMON     7     5      2
   332 ;; ---------------------------------------------------------------------------------
   333 ;; (1) _SPI_Write                                            2     1      1      44
   334 ;;                                              0 COMMON     2     1      1
   335 ;; ---------------------------------------------------------------------------------
   336 ;; (1) _SPI_Initialize_Master                                0     0      0       0
   337 ;; ---------------------------------------------------------------------------------
   338 ;; Estimated maximum stack depth 1
   339 ;; ---------------------------------------------------------------------------------
   340                           
   341 ;; Call Graph Graphs:
   342                           
   343 ;; _main (ROOT)
   344 ;;   _SPI_Initialize_Master
   345 ;;   _SPI_Write
   346 ;;   _delay
   347 ;;
   348                           
   349 ;; Address spaces:
   350                           
   351 ;;Name               Size   Autos  Total    Cost      Usage
   352 ;;BANK3               60      0       0       9        0.0%
   353 ;;BITBANK3            60      0       0       8        0.0%
   354 ;;SFR3                 0      0       0       4        0.0%
   355 ;;BITSFR3              0      0       0       4        0.0%
   356 ;;BANK2               60      0       0      11        0.0%
   357 ;;BITBANK2            60      0       0      10        0.0%
   358 ;;SFR2                 0      0       0       5        0.0%
   359 ;;BITSFR2              0      0       0       5        0.0%
   360 ;;SFR1                 0      0       0       2        0.0%
   361 ;;BITSFR1              0      0       0       2        0.0%
   362 ;;BANK1               50      0       0       7        0.0%
   363 ;;BITBANK1            50      0       0       6        0.0%
   364 ;;CODE                 0      0       0       0        0.0%
   365 ;;DATA                 0      0      40      12        0.0%
   366 ;;ABS                  0      0      3F       3        0.0%
   367 ;;NULL                 0      0       0       0        0.0%
   368 ;;STACK                0      0       1       2        0.0%
   369 ;;BANK0               50     12      36       5       67.5%
   370 ;;BITBANK0            50      0       0       4        0.0%
   371 ;;SFR0                 0      0       0       1        0.0%
   372 ;;BITSFR0              0      0       0       1        0.0%
   373 ;;COMMON               E      9       9       1       64.3%
   374 ;;BITCOMMON            E      0       0       0        0.0%
   375 ;;EEDATA             100      0       0       0        0.0%
   376                           
   377                           	global	_main
   378                           psect	maintext,global,class=CODE,delta=2
   379                           global __pmaintext
   380  062C                     __pmaintext:
   381                           
   382 ;; *************** function _main *****************
   383 ;; Defined at:
   384 ;;		line 18 in file "7 SEG SPI.c"
   385 ;; Parameters:    Size  Location     Type
   386 ;;		None
   387 ;; Auto vars:     Size  Location     Type
   388 ;;  a               2   16[BANK0 ] int 
   389 ;;  b               2   14[BANK0 ] int 
   390 ;;  c               2   12[BANK0 ] int 
   391 ;;  d               2   10[BANK0 ] int 
   392 ;;  i               2    8[BANK0 ] int 
   393 ;;  e               2    6[BANK0 ] int 
   394 ;;  f               2    4[BANK0 ] int 
   395 ;;  g               2    2[BANK0 ] int 
   396 ;;  h               2    0[BANK0 ] int 
   397 ;; Return value:  Size  Location     Type
   398 ;;		None               void
   399 ;; Registers used:
   400 ;;		wreg, fsr0l, fsr0h, status,2, status,0, btemp+1, pclath, cstack
   401 ;; Tracked objects:
   402 ;;		On entry : 17F/0
   403 ;;		On exit  : 0/0
   404 ;;		Unchanged: 0/0
   405 ;; Data sizes:     COMMON   BANK0   BANK1   BANK3   BANK2
   406 ;;      Params:         0       0       0       0       0
   407 ;;      Locals:         0      18       0       0       0
   408 ;;      Temps:          2       0       0       0       0
   409 ;;      Totals:         2      18       0       0       0
   410 ;;Total ram usage:       20 bytes
   411 ;; Hardware stack levels required when called:    1
   412 ;; This function calls:
   413 ;;		_SPI_Initialize_Master
   414 ;;		_SPI_Write
   415 ;;		_delay
   416 ;; This function is called by:
   417 ;;		Startup code after reset
   418 ;; This function uses a non-reentrant model
   419 ;;
   420                           psect	maintext
   421                           	file	"7 SEG SPI.c"
   422                           	line	18
   423                           	global	__size_of_main
   424  01D4                     	__size_of_main	equ	__end_of_main-_main
   425                           	
   426  062C                     _main:	
   427                           	opt	stack 7
   428                           ; Regs used in _main: [wreg-fsr0h+status,2+status,0+btemp+1+pclath+cstack]
   429                           	line	19
   430                           	
   431  062C                     l2788:	
   432                           ;7 SEG SPI.c: 19: RC2=1;
   433  062C  1283               	bcf	status, 5	;RP0=0, select bank0
   434  062D  1303               	bcf	status, 6	;RP1=0, select bank0
   435  062E  1507               	bsf	(58/8),(58)&7
   436                           	line	21
   437                           	
   438  062F                     l2790:	
   439                           ;7 SEG SPI.c: 20: int a,b,c,d,e,f,g,h,i;
   440                           ;7 SEG SPI.c: 21: SPI_Initialize_Master();
   441  062F  120A  118A  257B   	fcall	_SPI_Initialize_Master
              120A  118A         
   442                           	line	22
   443                           	
   444  0634                     l2792:	
   445                           ;7 SEG SPI.c: 22: a=b=c=d=e=f=g=h=0;
   446  0634  1283               	bcf	status, 5	;RP0=0, select bank0
   447  0635  1303               	bcf	status, 6	;RP1=0, select bank0
   448  0636  01C4               	clrf	(main@h)
   449  0637  01C5               	clrf	(main@h+1)
   450  0638  01C6               	clrf	(main@g)
   451  0639  01C7               	clrf	(main@g+1)
   452  063A  01C8               	clrf	(main@f)
   453  063B  01C9               	clrf	(main@f+1)
   454  063C  01CA               	clrf	(main@e)
   455  063D  01CB               	clrf	(main@e+1)
   456  063E  01CE               	clrf	(main@d)
   457  063F  01CF               	clrf	(main@d+1)
   458  0640  01D0               	clrf	(main@c)
   459  0641  01D1               	clrf	(main@c+1)
   460  0642  01D2               	clrf	(main@b)
   461  0643  01D3               	clrf	(main@b+1)
   462  0644  01D4               	clrf	(main@a)
   463  0645  01D5               	clrf	(main@a+1)
   464                           	line	23
   465                           	
   466  0646                     l2794:	
   467                           ;7 SEG SPI.c: 23: SPI_Write(0x0a,0xf);
   468  0646  300F               	movlw	(0Fh)
   469  0647  00F7               	movwf	(??_main+0)+0
   470  0648  0877               	movf	(??_main+0)+0,w
   471  0649  00F0               	movwf	(?_SPI_Write)
   472  064A  300A               	movlw	(0Ah)
   473  064B  120A  118A  25AD   	fcall	_SPI_Write
              120A  118A         
   474                           	line	24
   475                           	
   476  0650                     l2796:	
   477                           ;7 SEG SPI.c: 24: SPI_Write(0x0b,0x07);
   478  0650  3007               	movlw	(07h)
   479  0651  00F7               	movwf	(??_main+0)+0
   480  0652  0877               	movf	(??_main+0)+0,w
   481  0653  00F0               	movwf	(?_SPI_Write)
   482  0654  300B               	movlw	(0Bh)
   483  0655  120A  118A  25AD   	fcall	_SPI_Write
              120A  118A         
   484                           	line	25
   485                           	
   486  065A                     l2798:	
   487                           ;7 SEG SPI.c: 25: SPI_Write(0x0c,0x01);
   488  065A  01F0               	clrf	(?_SPI_Write)
   489  065B  1403               	bsf	status,0
   490  065C  0DF0               	rlf	(?_SPI_Write),f
   491  065D  300C               	movlw	(0Ch)
   492  065E  120A  118A  25AD   	fcall	_SPI_Write
              120A  118A         
   493                           	line	26
   494                           ;7 SEG SPI.c: 26: for(i=0;i<9;i++)
   495  0663  1283               	bcf	status, 5	;RP0=0, select bank0
   496  0664  1303               	bcf	status, 6	;RP1=0, select bank0
   497  0665  01CC               	clrf	(main@i)
   498  0666  01CD               	clrf	(main@i+1)
   499                           	
   500  0667                     l2800:	
   501  0667  084D               	movf	(main@i+1),w
   502  0668  3A80               	xorlw	80h
   503  0669  00FF               	movwf	btemp+1
   504  066A  3080               	movlw	(high(09h))^80h
   505  066B  027F               	subwf	btemp+1,w
   506  066C  1D03               	skipz
   507  066D  2E70               	goto	u2435
   508  066E  3009               	movlw	low(09h)
   509  066F  024C               	subwf	(main@i),w
   510  0670                     u2435:
   511                           
   512  0670  1C03               	skipc
   513  0671  2E73               	goto	u2431
   514  0672  2E74               	goto	u2430
   515  0673                     u2431:
   516  0673  2E76               	goto	l2804
   517  0674                     u2430:
   518  0674  2EA8               	goto	l2812
   519                           	
   520  0675                     l2802:	
   521  0675  2EA8               	goto	l2812
   522                           	line	27
   523                           	
   524  0676                     l695:	
   525                           	line	28
   526                           	
   527  0676                     l2804:	
   528                           ;7 SEG SPI.c: 27: {
   529                           ;7 SEG SPI.c: 28: SPI_Write(ar2[i],arr[0]);
   530  0676  1283               	bcf	status, 5	;RP0=0, select bank0
   531  0677  1303               	bcf	status, 6	;RP1=0, select bank0
   532  0678  0820               	movf	(_arr),w
   533  0679  00F7               	movwf	(??_main+0)+0
   534  067A  0877               	movf	(??_main+0)+0,w
   535  067B  00F0               	movwf	(?_SPI_Write)
   536  067C  084C               	movf	(main@i),w
   537  067D  00F8               	movwf	(??_main+1)+0
   538  067E  0778               	addwf	(??_main+1)+0,w
   539  067F  3E34               	addlw	_ar2&0ffh
   540  0680  0084               	movwf	fsr0
   541  0681  1383               	bcf	status, 7	;select IRP bank0
   542  0682  0800               	movf	indf,w
   543  0683  120A  118A  25AD   	fcall	_SPI_Write
              120A  118A         
   544                           	line	29
   545                           	
   546  0688                     l2806:	
   547                           ;7 SEG SPI.c: 29: delay(10);
   548  0688  300A               	movlw	low(0Ah)
   549  0689  00F0               	movwf	(?_delay)
   550  068A  3000               	movlw	high(0Ah)
   551  068B  00F1               	movwf	((?_delay))+1
   552  068C  120A  118A  25EE   	fcall	_delay
              120A  118A         
   553                           	line	26
   554                           	
   555  0691                     l2808:	
   556  0691  3001               	movlw	low(01h)
   557  0692  1283               	bcf	status, 5	;RP0=0, select bank0
   558  0693  1303               	bcf	status, 6	;RP1=0, select bank0
   559  0694  07CC               	addwf	(main@i),f
   560  0695  1803               	skipnc
   561  0696  0ACD               	incf	(main@i+1),f
   562  0697  3000               	movlw	high(01h)
   563  0698  07CD               	addwf	(main@i+1),f
   564                           	
   565  0699                     l2810:	
   566  0699  084D               	movf	(main@i+1),w
   567  069A  3A80               	xorlw	80h
   568  069B  00FF               	movwf	btemp+1
   569  069C  3080               	movlw	(high(09h))^80h
   570  069D  027F               	subwf	btemp+1,w
   571  069E  1D03               	skipz
   572  069F  2EA2               	goto	u2445
   573  06A0  3009               	movlw	low(09h)
   574  06A1  024C               	subwf	(main@i),w
   575  06A2                     u2445:
   576                           
   577  06A2  1C03               	skipc
   578  06A3  2EA5               	goto	u2441
   579  06A4  2EA6               	goto	u2440
   580  06A5                     u2441:
   581  06A5  2E76               	goto	l2804
   582  06A6                     u2440:
   583  06A6  2EA8               	goto	l2812
   584                           	
   585  06A7                     l696:	
   586  06A7  2EA8               	goto	l2812
   587                           	line	31
   588                           ;7 SEG SPI.c: 30: }
   589                           ;7 SEG SPI.c: 31: while(1)
   590                           	
   591  06A8                     l697:	
   592                           	line	33
   593                           	
   594  06A8                     l2812:	
   595                           ;7 SEG SPI.c: 32: {
   596                           ;7 SEG SPI.c: 33: SPI_Write(ar2[7],arr[a]);
   597  06A8  1283               	bcf	status, 5	;RP0=0, select bank0
   598  06A9  1303               	bcf	status, 6	;RP1=0, select bank0
   599  06AA  0854               	movf	(main@a),w
   600  06AB  00F7               	movwf	(??_main+0)+0
   601  06AC  0777               	addwf	(??_main+0)+0,w
   602  06AD  3E20               	addlw	_arr&0ffh
   603  06AE  0084               	movwf	fsr0
   604  06AF  1383               	bcf	status, 7	;select IRP bank0
   605  06B0  0800               	movf	indf,w
   606  06B1  00F8               	movwf	(??_main+1)+0
   607  06B2  0878               	movf	(??_main+1)+0,w
   608  06B3  00F0               	movwf	(?_SPI_Write)
   609  06B4  0842               	movf	0+(_ar2)+0Eh,w
   610  06B5  120A  118A  25AD   	fcall	_SPI_Write
              120A  118A         
   611                           	line	34
   612                           ;7 SEG SPI.c: 34: SPI_Write(ar2[6],arr[b]);
   613  06BA  1283               	bcf	status, 5	;RP0=0, select bank0
   614  06BB  1303               	bcf	status, 6	;RP1=0, select bank0
   615  06BC  0852               	movf	(main@b),w
   616  06BD  00F7               	movwf	(??_main+0)+0
   617  06BE  0777               	addwf	(??_main+0)+0,w
   618  06BF  3E20               	addlw	_arr&0ffh
   619  06C0  0084               	movwf	fsr0
   620  06C1  1383               	bcf	status, 7	;select IRP bank0
   621  06C2  0800               	movf	indf,w
   622  06C3  00F8               	movwf	(??_main+1)+0
   623  06C4  0878               	movf	(??_main+1)+0,w
   624  06C5  00F0               	movwf	(?_SPI_Write)
   625  06C6  0840               	movf	0+(_ar2)+0Ch,w
   626  06C7  120A  118A  25AD   	fcall	_SPI_Write
              120A  118A         
   627                           	line	35
   628                           ;7 SEG SPI.c: 35: SPI_Write(ar2[5],arr[c]);
   629  06CC  1283               	bcf	status, 5	;RP0=0, select bank0
   630  06CD  1303               	bcf	status, 6	;RP1=0, select bank0
   631  06CE  0850               	movf	(main@c),w
   632  06CF  00F7               	movwf	(??_main+0)+0
   633  06D0  0777               	addwf	(??_main+0)+0,w
   634  06D1  3E20               	addlw	_arr&0ffh
   635  06D2  0084               	movwf	fsr0
   636  06D3  1383               	bcf	status, 7	;select IRP bank0
   637  06D4  0800               	movf	indf,w
   638  06D5  00F8               	movwf	(??_main+1)+0
   639  06D6  0878               	movf	(??_main+1)+0,w
   640  06D7  00F0               	movwf	(?_SPI_Write)
   641  06D8  083E               	movf	0+(_ar2)+0Ah,w
   642  06D9  120A  118A  25AD   	fcall	_SPI_Write
              120A  118A         
   643                           	line	36
   644                           ;7 SEG SPI.c: 36: SPI_Write(ar2[4],arr[d]);
   645  06DE  1283               	bcf	status, 5	;RP0=0, select bank0
   646  06DF  1303               	bcf	status, 6	;RP1=0, select bank0
   647  06E0  084E               	movf	(main@d),w
   648  06E1  00F7               	movwf	(??_main+0)+0
   649  06E2  0777               	addwf	(??_main+0)+0,w
   650  06E3  3E20               	addlw	_arr&0ffh
   651  06E4  0084               	movwf	fsr0
   652  06E5  1383               	bcf	status, 7	;select IRP bank0
   653  06E6  0800               	movf	indf,w
   654  06E7  00F8               	movwf	(??_main+1)+0
   655  06E8  0878               	movf	(??_main+1)+0,w
   656  06E9  00F0               	movwf	(?_SPI_Write)
   657  06EA  083C               	movf	0+(_ar2)+08h,w
   658  06EB  120A  118A  25AD   	fcall	_SPI_Write
              120A  118A         
   659                           	line	37
   660                           ;7 SEG SPI.c: 37: SPI_Write(ar2[3],arr[e]);
   661  06F0  1283               	bcf	status, 5	;RP0=0, select bank0
   662  06F1  1303               	bcf	status, 6	;RP1=0, select bank0
   663  06F2  084A               	movf	(main@e),w
   664  06F3  00F7               	movwf	(??_main+0)+0
   665  06F4  0777               	addwf	(??_main+0)+0,w
   666  06F5  3E20               	addlw	_arr&0ffh
   667  06F6  0084               	movwf	fsr0
   668  06F7  1383               	bcf	status, 7	;select IRP bank0
   669  06F8  0800               	movf	indf,w
   670  06F9  00F8               	movwf	(??_main+1)+0
   671  06FA  0878               	movf	(??_main+1)+0,w
   672  06FB  00F0               	movwf	(?_SPI_Write)
   673  06FC  083A               	movf	0+(_ar2)+06h,w
   674  06FD  120A  118A  25AD   	fcall	_SPI_Write
              120A  118A         
   675                           	line	38
   676                           ;7 SEG SPI.c: 38: SPI_Write(ar2[2],arr[f]);
   677  0702  1283               	bcf	status, 5	;RP0=0, select bank0
   678  0703  1303               	bcf	status, 6	;RP1=0, select bank0
   679  0704  0848               	movf	(main@f),w
   680  0705  00F7               	movwf	(??_main+0)+0
   681  0706  0777               	addwf	(??_main+0)+0,w
   682  0707  3E20               	addlw	_arr&0ffh
   683  0708  0084               	movwf	fsr0
   684  0709  1383               	bcf	status, 7	;select IRP bank0
   685  070A  0800               	movf	indf,w
   686  070B  00F8               	movwf	(??_main+1)+0
   687  070C  0878               	movf	(??_main+1)+0,w
   688  070D  00F0               	movwf	(?_SPI_Write)
   689  070E  0838               	movf	0+(_ar2)+04h,w
   690  070F  120A  118A  25AD   	fcall	_SPI_Write
              120A  118A         
   691                           	line	39
   692                           ;7 SEG SPI.c: 39: SPI_Write(ar2[1],arr[g]);
   693  0714  1283               	bcf	status, 5	;RP0=0, select bank0
   694  0715  1303               	bcf	status, 6	;RP1=0, select bank0
   695  0716  0846               	movf	(main@g),w
   696  0717  00F7               	movwf	(??_main+0)+0
   697  0718  0777               	addwf	(??_main+0)+0,w
   698  0719  3E20               	addlw	_arr&0ffh
   699  071A  0084               	movwf	fsr0
   700  071B  1383               	bcf	status, 7	;select IRP bank0
   701  071C  0800               	movf	indf,w
   702  071D  00F8               	movwf	(??_main+1)+0
   703  071E  0878               	movf	(??_main+1)+0,w
   704  071F  00F0               	movwf	(?_SPI_Write)
   705  0720  0836               	movf	0+(_ar2)+02h,w
   706  0721  120A  118A  25AD   	fcall	_SPI_Write
              120A  118A         
   707                           	line	40
   708                           ;7 SEG SPI.c: 40: SPI_Write(ar2[0],arr[h]);
   709  0726  1283               	bcf	status, 5	;RP0=0, select bank0
   710  0727  1303               	bcf	status, 6	;RP1=0, select bank0
   711  0728  0844               	movf	(main@h),w
   712  0729  00F7               	movwf	(??_main+0)+0
   713  072A  0777               	addwf	(??_main+0)+0,w
   714  072B  3E20               	addlw	_arr&0ffh
   715  072C  0084               	movwf	fsr0
   716  072D  1383               	bcf	status, 7	;select IRP bank0
   717  072E  0800               	movf	indf,w
   718  072F  00F8               	movwf	(??_main+1)+0
   719  0730  0878               	movf	(??_main+1)+0,w
   720  0731  00F0               	movwf	(?_SPI_Write)
   721  0732  0834               	movf	(_ar2),w
   722  0733  120A  118A  25AD   	fcall	_SPI_Write
              120A  118A         
   723                           	line	41
   724                           	
   725  0738                     l2814:	
   726                           ;7 SEG SPI.c: 41: a++;
   727  0738  3001               	movlw	low(01h)
   728  0739  1283               	bcf	status, 5	;RP0=0, select bank0
   729  073A  1303               	bcf	status, 6	;RP1=0, select bank0
   730  073B  07D4               	addwf	(main@a),f
   731  073C  1803               	skipnc
   732  073D  0AD5               	incf	(main@a+1),f
   733  073E  3000               	movlw	high(01h)
   734  073F  07D5               	addwf	(main@a+1),f
   735                           	line	42
   736                           	
   737  0740                     l2816:	
   738                           ;7 SEG SPI.c: 42: if(a==10)
   739  0740  300A               	movlw	0Ah
   740  0741  0654               	xorwf	(main@a),w
   741  0742  0455               	iorwf	(main@a+1),w
   742  0743  1D03               	skipz
   743  0744  2F46               	goto	u2451
   744  0745  2F47               	goto	u2450
   745  0746                     u2451:
   746  0746  2F50               	goto	l2822
   747  0747                     u2450:
   748                           	line	44
   749                           	
   750  0747                     l2818:	
   751                           ;7 SEG SPI.c: 43: {
   752                           ;7 SEG SPI.c: 44: a=0;
   753  0747  01D4               	clrf	(main@a)
   754  0748  01D5               	clrf	(main@a+1)
   755                           	line	45
   756                           	
   757  0749                     l2820:	
   758                           ;7 SEG SPI.c: 45: b++;
   759  0749  3001               	movlw	low(01h)
   760  074A  07D2               	addwf	(main@b),f
   761  074B  1803               	skipnc
   762  074C  0AD3               	incf	(main@b+1),f
   763  074D  3000               	movlw	high(01h)
   764  074E  07D3               	addwf	(main@b+1),f
   765  074F  2F50               	goto	l2822
   766                           	line	46
   767                           	
   768  0750                     l698:	
   769                           	line	47
   770                           	
   771  0750                     l2822:	
   772                           ;7 SEG SPI.c: 46: }
   773                           ;7 SEG SPI.c: 47: if(b==10)
   774  0750  300A               	movlw	0Ah
   775  0751  0652               	xorwf	(main@b),w
   776  0752  0453               	iorwf	(main@b+1),w
   777  0753  1D03               	skipz
   778  0754  2F56               	goto	u2461
   779  0755  2F57               	goto	u2460
   780  0756                     u2461:
   781  0756  2F62               	goto	l2828
   782  0757                     u2460:
   783                           	line	49
   784                           	
   785  0757                     l2824:	
   786                           ;7 SEG SPI.c: 48: {
   787                           ;7 SEG SPI.c: 49: a=b=0;
   788  0757  01D2               	clrf	(main@b)
   789  0758  01D3               	clrf	(main@b+1)
   790  0759  01D4               	clrf	(main@a)
   791  075A  01D5               	clrf	(main@a+1)
   792                           	line	50
   793                           	
   794  075B                     l2826:	
   795                           ;7 SEG SPI.c: 50: c++;
   796  075B  3001               	movlw	low(01h)
   797  075C  07D0               	addwf	(main@c),f
   798  075D  1803               	skipnc
   799  075E  0AD1               	incf	(main@c+1),f
   800  075F  3000               	movlw	high(01h)
   801  0760  07D1               	addwf	(main@c+1),f
   802  0761  2F62               	goto	l2828
   803                           	line	51
   804                           	
   805  0762                     l699:	
   806                           	line	52
   807                           	
   808  0762                     l2828:	
   809                           ;7 SEG SPI.c: 51: }
   810                           ;7 SEG SPI.c: 52: if(c==10)
   811  0762  300A               	movlw	0Ah
   812  0763  0650               	xorwf	(main@c),w
   813  0764  0451               	iorwf	(main@c+1),w
   814  0765  1D03               	skipz
   815  0766  2F68               	goto	u2471
   816  0767  2F69               	goto	u2470
   817  0768                     u2471:
   818  0768  2F76               	goto	l2834
   819  0769                     u2470:
   820                           	line	54
   821                           	
   822  0769                     l2830:	
   823                           ;7 SEG SPI.c: 53: {
   824                           ;7 SEG SPI.c: 54: a=b=c=0;
   825  0769  01D0               	clrf	(main@c)
   826  076A  01D1               	clrf	(main@c+1)
   827  076B  01D2               	clrf	(main@b)
   828  076C  01D3               	clrf	(main@b+1)
   829  076D  01D4               	clrf	(main@a)
   830  076E  01D5               	clrf	(main@a+1)
   831                           	line	55
   832                           	
   833  076F                     l2832:	
   834                           ;7 SEG SPI.c: 55: d++;
   835  076F  3001               	movlw	low(01h)
   836  0770  07CE               	addwf	(main@d),f
   837  0771  1803               	skipnc
   838  0772  0ACF               	incf	(main@d+1),f
   839  0773  3000               	movlw	high(01h)
   840  0774  07CF               	addwf	(main@d+1),f
   841  0775  2F76               	goto	l2834
   842                           	line	56
   843                           	
   844  0776                     l700:	
   845                           	line	57
   846                           	
   847  0776                     l2834:	
   848                           ;7 SEG SPI.c: 56: }
   849                           ;7 SEG SPI.c: 57: if(d==10)
   850  0776  300A               	movlw	0Ah
   851  0777  064E               	xorwf	(main@d),w
   852  0778  044F               	iorwf	(main@d+1),w
   853  0779  1D03               	skipz
   854  077A  2F7C               	goto	u2481
   855  077B  2F7D               	goto	u2480
   856  077C                     u2481:
   857  077C  2F8C               	goto	l2840
   858  077D                     u2480:
   859                           	line	59
   860                           	
   861  077D                     l2836:	
   862                           ;7 SEG SPI.c: 58: {
   863                           ;7 SEG SPI.c: 59: a=b=c=d=0;
   864  077D  01CE               	clrf	(main@d)
   865  077E  01CF               	clrf	(main@d+1)
   866  077F  01D0               	clrf	(main@c)
   867  0780  01D1               	clrf	(main@c+1)
   868  0781  01D2               	clrf	(main@b)
   869  0782  01D3               	clrf	(main@b+1)
   870  0783  01D4               	clrf	(main@a)
   871  0784  01D5               	clrf	(main@a+1)
   872                           	line	60
   873                           	
   874  0785                     l2838:	
   875                           ;7 SEG SPI.c: 60: e++;
   876  0785  3001               	movlw	low(01h)
   877  0786  07CA               	addwf	(main@e),f
   878  0787  1803               	skipnc
   879  0788  0ACB               	incf	(main@e+1),f
   880  0789  3000               	movlw	high(01h)
   881  078A  07CB               	addwf	(main@e+1),f
   882  078B  2F8C               	goto	l2840
   883                           	line	61
   884                           	
   885  078C                     l701:	
   886                           	line	62
   887                           	
   888  078C                     l2840:	
   889                           ;7 SEG SPI.c: 61: }
   890                           ;7 SEG SPI.c: 62: if(e==10)
   891  078C  300A               	movlw	0Ah
   892  078D  064A               	xorwf	(main@e),w
   893  078E  044B               	iorwf	(main@e+1),w
   894  078F  1D03               	skipz
   895  0790  2F92               	goto	u2491
   896  0791  2F93               	goto	u2490
   897  0792                     u2491:
   898  0792  2FA4               	goto	l2846
   899  0793                     u2490:
   900                           	line	64
   901                           	
   902  0793                     l2842:	
   903                           ;7 SEG SPI.c: 63: {
   904                           ;7 SEG SPI.c: 64: a=b=c=d=e=0;
   905  0793  01CA               	clrf	(main@e)
   906  0794  01CB               	clrf	(main@e+1)
   907  0795  01CE               	clrf	(main@d)
   908  0796  01CF               	clrf	(main@d+1)
   909  0797  01D0               	clrf	(main@c)
   910  0798  01D1               	clrf	(main@c+1)
   911  0799  01D2               	clrf	(main@b)
   912  079A  01D3               	clrf	(main@b+1)
   913  079B  01D4               	clrf	(main@a)
   914  079C  01D5               	clrf	(main@a+1)
   915                           	line	65
   916                           	
   917  079D                     l2844:	
   918                           ;7 SEG SPI.c: 65: f++;
   919  079D  3001               	movlw	low(01h)
   920  079E  07C8               	addwf	(main@f),f
   921  079F  1803               	skipnc
   922  07A0  0AC9               	incf	(main@f+1),f
   923  07A1  3000               	movlw	high(01h)
   924  07A2  07C9               	addwf	(main@f+1),f
   925  07A3  2FA4               	goto	l2846
   926                           	line	66
   927                           	
   928  07A4                     l702:	
   929                           	line	67
   930                           	
   931  07A4                     l2846:	
   932                           ;7 SEG SPI.c: 66: }
   933                           ;7 SEG SPI.c: 67: if(f==10)
   934  07A4  300A               	movlw	0Ah
   935  07A5  0648               	xorwf	(main@f),w
   936  07A6  0449               	iorwf	(main@f+1),w
   937  07A7  1D03               	skipz
   938  07A8  2FAA               	goto	u2501
   939  07A9  2FAB               	goto	u2500
   940  07AA                     u2501:
   941  07AA  2FBE               	goto	l2852
   942  07AB                     u2500:
   943                           	line	69
   944                           	
   945  07AB                     l2848:	
   946                           ;7 SEG SPI.c: 68: {
   947                           ;7 SEG SPI.c: 69: a=b=c=d=e=f=0;
   948  07AB  01C8               	clrf	(main@f)
   949  07AC  01C9               	clrf	(main@f+1)
   950  07AD  01CA               	clrf	(main@e)
   951  07AE  01CB               	clrf	(main@e+1)
   952  07AF  01CE               	clrf	(main@d)
   953  07B0  01CF               	clrf	(main@d+1)
   954  07B1  01D0               	clrf	(main@c)
   955  07B2  01D1               	clrf	(main@c+1)
   956  07B3  01D2               	clrf	(main@b)
   957  07B4  01D3               	clrf	(main@b+1)
   958  07B5  01D4               	clrf	(main@a)
   959  07B6  01D5               	clrf	(main@a+1)
   960                           	line	70
   961                           	
   962  07B7                     l2850:	
   963                           ;7 SEG SPI.c: 70: g++;
   964  07B7  3001               	movlw	low(01h)
   965  07B8  07C6               	addwf	(main@g),f
   966  07B9  1803               	skipnc
   967  07BA  0AC7               	incf	(main@g+1),f
   968  07BB  3000               	movlw	high(01h)
   969  07BC  07C7               	addwf	(main@g+1),f
   970  07BD  2FBE               	goto	l2852
   971                           	line	71
   972                           	
   973  07BE                     l703:	
   974                           	line	72
   975                           	
   976  07BE                     l2852:	
   977                           ;7 SEG SPI.c: 71: }
   978                           ;7 SEG SPI.c: 72: if(g==10)
   979  07BE  300A               	movlw	0Ah
   980  07BF  0646               	xorwf	(main@g),w
   981  07C0  0447               	iorwf	(main@g+1),w
   982  07C1  1D03               	skipz
   983  07C2  2FC4               	goto	u2511
   984  07C3  2FC5               	goto	u2510
   985  07C4                     u2511:
   986  07C4  2FDA               	goto	l2858
   987  07C5                     u2510:
   988                           	line	74
   989                           	
   990  07C5                     l2854:	
   991                           ;7 SEG SPI.c: 73: {
   992                           ;7 SEG SPI.c: 74: a=b=c=d=e=g=f=0;
   993  07C5  01C8               	clrf	(main@f)
   994  07C6  01C9               	clrf	(main@f+1)
   995  07C7  01C6               	clrf	(main@g)
   996  07C8  01C7               	clrf	(main@g+1)
   997  07C9  01CA               	clrf	(main@e)
   998  07CA  01CB               	clrf	(main@e+1)
   999  07CB  01CE               	clrf	(main@d)
  1000  07CC  01CF               	clrf	(main@d+1)
  1001  07CD  01D0               	clrf	(main@c)
  1002  07CE  01D1               	clrf	(main@c+1)
  1003  07CF  01D2               	clrf	(main@b)
  1004  07D0  01D3               	clrf	(main@b+1)
  1005  07D1  01D4               	clrf	(main@a)
  1006  07D2  01D5               	clrf	(main@a+1)
  1007                           	line	75
  1008                           	
  1009  07D3                     l2856:	
  1010                           ;7 SEG SPI.c: 75: h++;
  1011  07D3  3001               	movlw	low(01h)
  1012  07D4  07C4               	addwf	(main@h),f
  1013  07D5  1803               	skipnc
  1014  07D6  0AC5               	incf	(main@h+1),f
  1015  07D7  3000               	movlw	high(01h)
  1016  07D8  07C5               	addwf	(main@h+1),f
  1017  07D9  2FDA               	goto	l2858
  1018                           	line	76
  1019                           	
  1020  07DA                     l704:	
  1021                           	line	77
  1022                           	
  1023  07DA                     l2858:	
  1024                           ;7 SEG SPI.c: 76: }
  1025                           ;7 SEG SPI.c: 77: if(h==10)
  1026  07DA  300A               	movlw	0Ah
  1027  07DB  0644               	xorwf	(main@h),w
  1028  07DC  0445               	iorwf	(main@h+1),w
  1029  07DD  1D03               	skipz
  1030  07DE  2FE0               	goto	u2521
  1031  07DF  2FE1               	goto	u2520
  1032  07E0                     u2521:
  1033  07E0  2FF2               	goto	l2862
  1034  07E1                     u2520:
  1035                           	line	79
  1036                           	
  1037  07E1                     l2860:	
  1038                           ;7 SEG SPI.c: 78: {
  1039                           ;7 SEG SPI.c: 79: a=b=c=d=e=g=f=h=0;
  1040  07E1  01C4               	clrf	(main@h)
  1041  07E2  01C5               	clrf	(main@h+1)
  1042  07E3  01C8               	clrf	(main@f)
  1043  07E4  01C9               	clrf	(main@f+1)
  1044  07E5  01C6               	clrf	(main@g)
  1045  07E6  01C7               	clrf	(main@g+1)
  1046  07E7  01CA               	clrf	(main@e)
  1047  07E8  01CB               	clrf	(main@e+1)
  1048  07E9  01CE               	clrf	(main@d)
  1049  07EA  01CF               	clrf	(main@d+1)
  1050  07EB  01D0               	clrf	(main@c)
  1051  07EC  01D1               	clrf	(main@c+1)
  1052  07ED  01D2               	clrf	(main@b)
  1053  07EE  01D3               	clrf	(main@b+1)
  1054  07EF  01D4               	clrf	(main@a)
  1055  07F0  01D5               	clrf	(main@a+1)
  1056  07F1  2FF2               	goto	l2862
  1057                           	line	80
  1058                           	
  1059  07F2                     l705:	
  1060                           	line	81
  1061                           	
  1062  07F2                     l2862:	
  1063                           ;7 SEG SPI.c: 80: }
  1064                           ;7 SEG SPI.c: 81: delay(100);
  1065  07F2  3064               	movlw	low(064h)
  1066  07F3  00F0               	movwf	(?_delay)
  1067  07F4  3000               	movlw	high(064h)
  1068  07F5  00F1               	movwf	((?_delay))+1
  1069  07F6  120A  118A  25EE   	fcall	_delay
              120A  118A         
  1070  07FB  2EA8               	goto	l2812
  1071                           	line	82
  1072                           	
  1073  07FC                     l706:	
  1074                           	line	31
  1075  07FC  2EA8               	goto	l2812
  1076                           	
  1077  07FD                     l707:	
  1078                           	line	83
  1079                           	
  1080  07FD                     l708:	
  1081                           	global	start
  1082  07FD  120A  118A  2800   	ljmp	start
  1083                           	opt stack 0
  1084                           GLOBAL	__end_of_main
  1085  0800                     	__end_of_main:
  1086 ;; =============== function _main ends ============
  1087                           
  1088                           	signat	_main,88
  1089                           	global	_delay
  1090                           psect	text141,local,class=CODE,delta=2
  1091                           global __ptext141
  1092  05EE                     __ptext141:
  1093                           
  1094 ;; *************** function _delay *****************
  1095 ;; Defined at:
  1096 ;;		line 120 in file "7 SEG SPI.c"
  1097 ;; Parameters:    Size  Location     Type
  1098 ;;  a               2    0[COMMON] int 
  1099 ;; Auto vars:     Size  Location     Type
  1100 ;;  j               2    5[COMMON] int 
  1101 ;;  i               2    3[COMMON] int 
  1102 ;; Return value:  Size  Location     Type
  1103 ;;		None               void
  1104 ;; Registers used:
  1105 ;;		wreg, status,2, btemp+1
  1106 ;; Tracked objects:
  1107 ;;		On entry : 0/0
  1108 ;;		On exit  : 0/0
  1109 ;;		Unchanged: 0/0
  1110 ;; Data sizes:     COMMON   BANK0   BANK1   BANK3   BANK2
  1111 ;;      Params:         2       0       0       0       0
  1112 ;;      Locals:         4       0       0       0       0
  1113 ;;      Temps:          1       0       0       0       0
  1114 ;;      Totals:         7       0       0       0       0
  1115 ;;Total ram usage:        7 bytes
  1116 ;; Hardware stack levels used:    1
  1117 ;; This function calls:
  1118 ;;		Nothing
  1119 ;; This function is called by:
  1120 ;;		_main
  1121 ;; This function uses a non-reentrant model
  1122 ;;
  1123                           psect	text141
  1124                           	file	"7 SEG SPI.c"
  1125                           	line	120
  1126                           	global	__size_of_delay
  1127  003E                     	__size_of_delay	equ	__end_of_delay-_delay
  1128                           	
  1129  05EE                     _delay:	
  1130                           	opt	stack 7
  1131                           ; Regs used in _delay: [wreg+status,2+btemp+1]
  1132                           	line	122
  1133                           	
  1134  05EE                     l2774:	
  1135                           ;7 SEG SPI.c: 121: int i,j;
  1136                           ;7 SEG SPI.c: 122: for(i=0;i<a;i++)
  1137  05EE  01F3               	clrf	(delay@i)
  1138  05EF  01F4               	clrf	(delay@i+1)
  1139  05F0  2E1C               	goto	l725
  1140                           	line	123
  1141                           	
  1142  05F1                     l726:	
  1143                           	line	124
  1144                           	
  1145  05F1                     l2776:	
  1146                           ;7 SEG SPI.c: 123: {
  1147                           ;7 SEG SPI.c: 124: for(j=0;j<250;j++)
  1148  05F1  01F5               	clrf	(delay@j)
  1149  05F2  01F6               	clrf	(delay@j+1)
  1150                           	
  1151  05F3                     l2778:	
  1152  05F3  0876               	movf	(delay@j+1),w
  1153  05F4  3A80               	xorlw	80h
  1154  05F5  00FF               	movwf	btemp+1
  1155  05F6  3080               	movlw	(high(0FAh))^80h
  1156  05F7  027F               	subwf	btemp+1,w
  1157  05F8  1D03               	skipz
  1158  05F9  2DFC               	goto	u2405
  1159  05FA  30FA               	movlw	low(0FAh)
  1160  05FB  0275               	subwf	(delay@j),w
  1161  05FC                     u2405:
  1162                           
  1163  05FC  1C03               	skipc
  1164  05FD  2DFF               	goto	u2401
  1165  05FE  2E00               	goto	u2400
  1166  05FF                     u2401:
  1167  05FF  2E02               	goto	l2782
  1168  0600                     u2400:
  1169  0600  2E16               	goto	l2786
  1170                           	
  1171  0601                     l2780:	
  1172  0601  2E16               	goto	l2786
  1173                           	line	125
  1174                           	
  1175  0602                     l727:	
  1176                           	line	124
  1177                           	
  1178  0602                     l2782:	
  1179                           ;7 SEG SPI.c: 125: {
  1180  0602  3001               	movlw	low(01h)
  1181  0603  07F5               	addwf	(delay@j),f
  1182  0604  1803               	skipnc
  1183  0605  0AF6               	incf	(delay@j+1),f
  1184  0606  3000               	movlw	high(01h)
  1185  0607  07F6               	addwf	(delay@j+1),f
  1186                           	
  1187  0608                     l2784:	
  1188  0608  0876               	movf	(delay@j+1),w
  1189  0609  3A80               	xorlw	80h
  1190  060A  00FF               	movwf	btemp+1
  1191  060B  3080               	movlw	(high(0FAh))^80h
  1192  060C  027F               	subwf	btemp+1,w
  1193  060D  1D03               	skipz
  1194  060E  2E11               	goto	u2415
  1195  060F  30FA               	movlw	low(0FAh)
  1196  0610  0275               	subwf	(delay@j),w
  1197  0611                     u2415:
  1198                           
  1199  0611  1C03               	skipc
  1200  0612  2E14               	goto	u2411
  1201  0613  2E15               	goto	u2410
  1202  0614                     u2411:
  1203  0614  2E02               	goto	l2782
  1204  0615                     u2410:
  1205  0615  2E16               	goto	l2786
  1206                           	
  1207  0616                     l728:	
  1208                           	line	122
  1209                           	
  1210  0616                     l2786:	
  1211  0616  3001               	movlw	low(01h)
  1212  0617  07F3               	addwf	(delay@i),f
  1213  0618  1803               	skipnc
  1214  0619  0AF4               	incf	(delay@i+1),f
  1215  061A  3000               	movlw	high(01h)
  1216  061B  07F4               	addwf	(delay@i+1),f
  1217                           	
  1218  061C                     l725:	
  1219  061C  0874               	movf	(delay@i+1),w
  1220  061D  3A80               	xorlw	80h
  1221  061E  00F2               	movwf	(??_delay+0)+0
  1222  061F  0871               	movf	(delay@a+1),w
  1223  0620  3A80               	xorlw	80h
  1224  0621  0272               	subwf	(??_delay+0)+0,w
  1225  0622  1D03               	skipz
  1226  0623  2E26               	goto	u2425
  1227  0624  0870               	movf	(delay@a),w
  1228  0625  0273               	subwf	(delay@i),w
  1229  0626                     u2425:
  1230                           
  1231  0626  1C03               	skipc
  1232  0627  2E29               	goto	u2421
  1233  0628  2E2A               	goto	u2420
  1234  0629                     u2421:
  1235  0629  2DF1               	goto	l2776
  1236  062A                     u2420:
  1237  062A  2E2B               	goto	l730
  1238                           	
  1239  062B                     l729:	
  1240                           	line	128
  1241                           	
  1242  062B                     l730:	
  1243  062B  0008               	return
  1244                           	opt stack 0
  1245                           GLOBAL	__end_of_delay
  1246  062C                     	__end_of_delay:
  1247 ;; =============== function _delay ends ============
  1248                           
  1249                           	signat	_delay,4216
  1250                           	global	_SPI_Write
  1251                           psect	text142,local,class=CODE,delta=2
  1252                           global __ptext142
  1253  05AD                     __ptext142:
  1254                           
  1255 ;; *************** function _SPI_Write *****************
  1256 ;; Defined at:
  1257 ;;		line 131 in file "7 SEG SPI.c"
  1258 ;; Parameters:    Size  Location     Type
  1259 ;;  cmd             1    wreg     unsigned char 
  1260 ;;  data            1    0[COMMON] unsigned char 
  1261 ;; Auto vars:     Size  Location     Type
  1262 ;;  cmd             1    1[COMMON] unsigned char 
  1263 ;; Return value:  Size  Location     Type
  1264 ;;		None               void
  1265 ;; Registers used:
  1266 ;;		wreg
  1267 ;; Tracked objects:
  1268 ;;		On entry : 0/0
  1269 ;;		On exit  : 0/0
  1270 ;;		Unchanged: 0/0
  1271 ;; Data sizes:     COMMON   BANK0   BANK1   BANK3   BANK2
  1272 ;;      Params:         1       0       0       0       0
  1273 ;;      Locals:         1       0       0       0       0
  1274 ;;      Temps:          0       0       0       0       0
  1275 ;;      Totals:         2       0       0       0       0
  1276 ;;Total ram usage:        2 bytes
  1277 ;; Hardware stack levels used:    1
  1278 ;; This function calls:
  1279 ;;		Nothing
  1280 ;; This function is called by:
  1281 ;;		_main
  1282 ;; This function uses a non-reentrant model
  1283 ;;
  1284                           psect	text142
  1285                           	file	"7 SEG SPI.c"
  1286                           	line	131
  1287                           	global	__size_of_SPI_Write
  1288  001D                     	__size_of_SPI_Write	equ	__end_of_SPI_Write-_SPI_Write
  1289                           	
  1290  05AD                     _SPI_Write:	
  1291                           	opt	stack 7
  1292                           ; Regs used in _SPI_Write: [wreg]
  1293                           ;SPI_Write@cmd stored from wreg
  1294  05AD  00F1               	movwf	(SPI_Write@cmd)
  1295                           	line	132
  1296                           	
  1297  05AE                     l2768:	
  1298                           ;7 SEG SPI.c: 132: RC2=0;
  1299  05AE  1283               	bcf	status, 5	;RP0=0, select bank0
  1300  05AF  1303               	bcf	status, 6	;RP1=0, select bank0
  1301  05B0  1107               	bcf	(58/8),(58)&7
  1302                           	line	133
  1303                           	
  1304  05B1                     l2770:	
  1305                           ;7 SEG SPI.c: 133: SSPBUF = cmd;
  1306  05B1  0871               	movf	(SPI_Write@cmd),w
  1307  05B2  0093               	movwf	(19)	;volatile
  1308                           	line	134
  1309                           ;7 SEG SPI.c: 134: while ( !SSPSTATbits.BF );
  1310  05B3  2DB4               	goto	l733
  1311                           	
  1312  05B4                     l734:	
  1313                           	
  1314  05B4                     l733:	
  1315  05B4  1683               	bsf	status, 5	;RP0=1, select bank1
  1316  05B5  1303               	bcf	status, 6	;RP1=0, select bank1
  1317  05B6  1C14               	btfss	(148)^080h,0	;volatile
  1318  05B7  2DB9               	goto	u2381
  1319  05B8  2DBA               	goto	u2380
  1320  05B9                     u2381:
  1321  05B9  2DB4               	goto	l733
  1322  05BA                     u2380:
  1323  05BA  2DBB               	goto	l2772
  1324                           	
  1325  05BB                     l735:	
  1326                           	line	135
  1327                           	
  1328  05BB                     l2772:	
  1329                           ;7 SEG SPI.c: 135: SSPBUF = data;
  1330  05BB  0870               	movf	(SPI_Write@data),w
  1331  05BC  1283               	bcf	status, 5	;RP0=0, select bank0
  1332  05BD  1303               	bcf	status, 6	;RP1=0, select bank0
  1333  05BE  0093               	movwf	(19)	;volatile
  1334                           	line	136
  1335                           ;7 SEG SPI.c: 136: while ( !SSPSTATbits.BF );
  1336  05BF  2DC0               	goto	l736
  1337                           	
  1338  05C0                     l737:	
  1339                           	
  1340  05C0                     l736:	
  1341  05C0  1683               	bsf	status, 5	;RP0=1, select bank1
  1342  05C1  1303               	bcf	status, 6	;RP1=0, select bank1
  1343  05C2  1C14               	btfss	(148)^080h,0	;volatile
  1344  05C3  2DC5               	goto	u2391
  1345  05C4  2DC6               	goto	u2390
  1346  05C5                     u2391:
  1347  05C5  2DC0               	goto	l736
  1348  05C6                     u2390:
  1349                           	
  1350  05C6                     l738:	
  1351                           	line	137
  1352                           ;7 SEG SPI.c: 137: RC2=1;
  1353  05C6  1283               	bcf	status, 5	;RP0=0, select bank0
  1354  05C7  1303               	bcf	status, 6	;RP1=0, select bank0
  1355  05C8  1507               	bsf	(58/8),(58)&7
  1356                           	line	138
  1357                           	
  1358  05C9                     l739:	
  1359  05C9  0008               	return
  1360                           	opt stack 0
  1361                           GLOBAL	__end_of_SPI_Write
  1362  05CA                     	__end_of_SPI_Write:
  1363 ;; =============== function _SPI_Write ends ============
  1364                           
  1365                           	signat	_SPI_Write,8312
  1366                           	global	_SPI_Initialize_Master
  1367                           psect	text143,local,class=CODE,delta=2
  1368                           global __ptext143
  1369  057B                     __ptext143:
  1370                           
  1371 ;; *************** function _SPI_Initialize_Master *****************
  1372 ;; Defined at:
  1373 ;;		line 86 in file "7 SEG SPI.c"
  1374 ;; Parameters:    Size  Location     Type
  1375 ;;		None
  1376 ;; Auto vars:     Size  Location     Type
  1377 ;;		None
  1378 ;; Return value:  Size  Location     Type
  1379 ;;		None               void
  1380 ;; Registers used:
  1381 ;;		wreg, status,2
  1382 ;; Tracked objects:
  1383 ;;		On entry : 0/0
  1384 ;;		On exit  : 0/0
  1385 ;;		Unchanged: 0/0
  1386 ;; Data sizes:     COMMON   BANK0   BANK1   BANK3   BANK2
  1387 ;;      Params:         0       0       0       0       0
  1388 ;;      Locals:         0       0       0       0       0
  1389 ;;      Temps:          0       0       0       0       0
  1390 ;;      Totals:         0       0       0       0       0
  1391 ;;Total ram usage:        0 bytes
  1392 ;; Hardware stack levels used:    1
  1393 ;; This function calls:
  1394 ;;		Nothing
  1395 ;; This function is called by:
  1396 ;;		_main
  1397 ;; This function uses a non-reentrant model
  1398 ;;
  1399                           psect	text143
  1400                           	file	"7 SEG SPI.c"
  1401                           	line	86
  1402                           	global	__size_of_SPI_Initialize_Master
  1403  000D                     	__size_of_SPI_Initialize_Master	equ	__end_of_SPI_Initialize_Master-_SPI_Initialize_Mast
                                 er
  1404                           	
  1405  057B                     _SPI_Initialize_Master:	
  1406                           	opt	stack 7
  1407                           ; Regs used in _SPI_Initialize_Master: [wreg+status,2]
  1408                           	line	87
  1409                           	
  1410  057B                     l2760:	
  1411                           ;7 SEG SPI.c: 87: TRISC5 = 0;
  1412  057B  1683               	bsf	status, 5	;RP0=1, select bank1
  1413  057C  1303               	bcf	status, 6	;RP1=0, select bank1
  1414  057D  1287               	bcf	(1085/8)^080h,(1085)&7
  1415                           	line	88
  1416                           ;7 SEG SPI.c: 88: TRISC2=0;
  1417  057E  1107               	bcf	(1082/8)^080h,(1082)&7
  1418                           	line	89
  1419                           	
  1420  057F                     l2762:	
  1421                           ;7 SEG SPI.c: 89: SSPSTAT = 0b00000000;
  1422  057F  0194               	clrf	(148)^080h	;volatile
  1423                           	line	90
  1424                           	
  1425  0580                     l2764:	
  1426                           ;7 SEG SPI.c: 90: SSPCON = 0b00100000;
  1427  0580  3020               	movlw	(020h)
  1428  0581  1283               	bcf	status, 5	;RP0=0, select bank0
  1429  0582  1303               	bcf	status, 6	;RP1=0, select bank0
  1430  0583  0094               	movwf	(20)	;volatile
  1431                           	line	91
  1432                           	
  1433  0584                     l2766:	
  1434                           ;7 SEG SPI.c: 91: TRISC3 = 0;
  1435  0584  1683               	bsf	status, 5	;RP0=1, select bank1
  1436  0585  1303               	bcf	status, 6	;RP1=0, select bank1
  1437  0586  1187               	bcf	(1083/8)^080h,(1083)&7
  1438                           	line	92
  1439                           	
  1440  0587                     l711:	
  1441  0587  0008               	return
  1442                           	opt stack 0
  1443                           GLOBAL	__end_of_SPI_Initialize_Master
  1444  0588                     	__end_of_SPI_Initialize_Master:
  1445 ;; =============== function _SPI_Initialize_Master ends ============
  1446                           
  1447                           	signat	_SPI_Initialize_Master,88
  1448                           psect	text144,local,class=CODE,delta=2
  1449                           global __ptext144
  1450  0000                     __ptext144:
  1451                           	global	btemp
  1452  007E                     	btemp set 07Eh
  1453                           
  1454                           	DABS	1,126,2	;btemp
  1455                           	global	wtemp0
  1456  007E                     	wtemp0 set btemp


HI-TECH Software PICC Macro Assembler V9.83 build 10920 
Symbol Table                                                                                   Sat Sep 26 08:30:21 2020

                             pc 0002                     _SSPSTATbits 0094                              _RD 0C60  
                            _WR 0C61                              fsr 0004                             l700 0776  
                           l701 078C                             l702 07A4                             l711 0587  
                           l703 07BE                             l704 07DA                             l705 07F2  
                           l730 062B                             l706 07FC                             l707 07FD  
                           l708 07FD                             l733 05B4                             l725 061C  
                           l734 05B4                             l726 05F1                             l735 05BB  
                           l727 0602                             l736 05C0                             l728 0616  
                           l737 05C0                             l729 062B                             l738 05C6  
                           l739 05C9                             l695 0676                             l696 06A7  
                           l697 06A8                             l698 0750                             l699 0762  
                           _GIE 005F                             _RC2 003A                             _ar2 0034  
                           _arr 0020                             fsr0 0004                             indf 0000  
                          l2800 0667                            l2810 0699                            l2802 0675  
                          l2820 0749                            l2812 06A8                            l2804 0676  
                          l2830 0769                            l2822 0750                            l2814 0738  
                          l2806 0688                            l2760 057B                            l2840 078C  
                          l2832 076F                            l2824 0757                            l2816 0740  
                          l2808 0691                            l2762 057F                            l2770 05B1  
                          l2850 07B7                            l2842 0793                            l2834 0776  
                          l2826 075B                            l2818 0747                            l2764 0580  
                          l2772 05BB                            l2780 0601                            l2860 07E1  
                          l2852 07BE                            l2844 079D                            l2836 077D  
                          l2828 0762                            l2766 0584                            l2782 0602  
                          l2774 05EE                            l2862 07F2                            l2854 07C5  
                          l2846 07A4                            l2838 0785                            l2790 062F  
                          l2768 05AE                            l2784 0608                            l2776 05F1  
                          l2856 07D3                            l2848 07AB                            l2792 0634  
                          l2786 0616                            l2778 05F3                            l2858 07DA  
                          l2794 0646                            l2796 0650                            l2788 062C  
                          l2798 065A                            u2400 0600                            u2401 05FF  
                          u2410 0615                            u2411 0614                            u2420 062A  
                          u2500 07AB                            u2421 0629                            u2405 05FC  
                          u2501 07AA                            u2510 07C5                            u2430 0674  
                          u2415 0611                            u2511 07C4                            u2431 0673  
                          u2520 07E1                            u2440 06A6                            u2425 0626  
                          u2521 07E0                            u2441 06A5                            u2450 0747  
                          u2451 0746                            u2435 0670                            u2380 05BA  
                          u2460 0757                            u2381 05B9                            u2461 0756  
                          u2445 06A2                            u2390 05C6                            u2470 0769  
                          u2391 05C5                            u2471 0768                            u2480 077D  
                          u2481 077C                            u2490 0793                            u2491 0792  
                          _WREN 0C62                            _main 062C                            btemp 007E  
                          start 0000                           ?_main 0070                           _EEADR 010D  
                         _CARRY 0018                           _delay 05EE                           main@a 0054  
                         main@b 0052                           main@c 0050                           main@d 004E  
                         main@e 004A                           main@f 0048                           main@g 0046  
                         main@h 0044                           main@i 004C                           pclath 000A  
                         status 0003                           wtemp0 007E              __size_of_SPI_Write 001D  
                  __end_of_main 0800                          ??_main 0077                          ?_delay 0070  
                        _EEDATA 010C                          _EECON1 018C                          _EECON2 018D  
__size_of_SPI_Initialize_Master 000D                          _TRISC2 043A                          _TRISC3 043B  
                        _TRISC5 043D   __end_of_SPI_Initialize_Master 0588                          _SSPCON 0014  
                        _SSPBUF 0013                    SPI_Write@cmd 0071                          delay@a 0070  
                        delay@i 0073                          delay@j 0075               __end_of_SPI_Write 05CA  
                __pcstackCOMMON 0070                    __pidataBANK0 05CA                   __end_of_delay 062C  
                       ??_delay 0072                      __pmaintext 062C                         _SSPSTAT 0094  
                 SPI_Write@data 0070            end_of_initialization 0596                         init_ram 059E  
                     _SPI_Write 05AD           _SPI_Initialize_Master 057B             start_initialization 0588  
                    ?_SPI_Write 0070                     __pdataBANK0 0020                   __pcstackBANK0 0044  
        ?_SPI_Initialize_Master 0070                       __ptext141 05EE                       __ptext142 05AD  
                     __ptext143 057B                       __ptext144 0000                     ??_SPI_Write 0071  
                __size_of_delay 003E                       init_fetch 059A                   __size_of_main 01D4  
       ??_SPI_Initialize_Master 0070  
